; Function Attrs: nounwind uwtable
define ptr @l_Lean_Meta_resetMVarUserNames(ptr noundef readonly captures(none) %0, ptr readnone captures(none) %1, ptr noundef %2, ptr readnone captures(none) %3, ptr readnone captures(none) %4, ptr noundef %5) local_unnamed_addr #0 {
  %7 = getelementptr i8, ptr %0, i64 8
  %.val30 = load i64, ptr %7, align 8, !tbaa !15
  %8 = tail call ptr @l_Array_forIn_x27Unsafe_loop___at_Lean_Meta_resetMVarUserNames___spec__1(ptr poison, ptr nonnull poison, ptr noundef %0, i64 noundef %.val30, i64 noundef 0, ptr noundef nonnull inttoptr (i64 1 to ptr), ptr poison, ptr noundef %2, ptr poison, ptr poison, ptr noundef %5)
  %.val = load i32, ptr %8, align 4, !tbaa !4
  %9 = icmp eq i32 %.val, 1
  br i1 %9, label %10, label %22

10:                                               ; preds = %6
  %11 = getelementptr inbounds nuw i8, ptr %8, i64 8
  %12 = load ptr, ptr %11, align 8, !tbaa !9
  %13 = ptrtoint ptr %12 to i64
  %14 = and i64 %13, 1
  %.not33 = icmp eq i64 %14, 0
  br i1 %.not33, label %15, label %lean_dec.exit27

15:                                               ; preds = %10
  %16 = load i32, ptr %12, align 4, !tbaa !4
  %17 = icmp sgt i32 %16, 1
  br i1 %17, label %18, label %20, !prof !13

18:                                               ; preds = %15
  %19 = add nsw i32 %16, -1
  store i32 %19, ptr %12, align 4, !tbaa !4
  br label %lean_dec.exit27

20:                                               ; preds = %15
  %.not.i = icmp eq i32 %16, 0
  br i1 %.not.i, label %lean_dec.exit27, label %21

21:                                               ; preds = %20
  tail call void @lean_dec_ref_cold(ptr noundef nonnull %12) #4
  br label %lean_dec.exit27

lean_dec.exit27:                                  ; preds = %21, %20, %18, %10
  store ptr inttoptr (i64 1 to ptr), ptr %11, align 8, !tbaa !9
  br label %47

22:                                               ; preds = %6
  %23 = getelementptr inbounds nuw i8, ptr %8, i64 16
  %24 = load ptr, ptr %23, align 8, !tbaa !9
  %25 = ptrtoint ptr %24 to i64
  %26 = and i64 %25, 1
  %.not = icmp eq i64 %26, 0
  br i1 %.not, label %27, label %lean_inc.exit

27:                                               ; preds = %22
  %.val.i = load i32, ptr %24, align 4, !tbaa !4
  %28 = icmp sgt i32 %.val.i, 0
  br i1 %28, label %29, label %31, !prof !13

29:                                               ; preds = %27
  %30 = add nuw i32 %.val.i, 1
  store i32 %30, ptr %24, align 4, !tbaa !4
  br label %lean_inc.exit

31:                                               ; preds = %27
  %.not.i31 = icmp eq i32 %.val.i, 0
  br i1 %.not.i31, label %lean_inc.exit, label %32

32:                                               ; preds = %31
  tail call void @lean_inc_ref_cold(ptr noundef nonnull %24) #4
  br label %lean_inc.exit

lean_inc.exit:                                    ; preds = %32, %31, %29, %22
  %33 = ptrtoint ptr %8 to i64
  %34 = and i64 %33, 1
  %.not32 = icmp eq i64 %34, 0
  br i1 %.not32, label %35, label %lean_dec.exit

35:                                               ; preds = %lean_inc.exit
  %36 = icmp sgt i32 %.val, 1
  br i1 %36, label %37, label %39, !prof !13

37:                                               ; preds = %35
  %38 = add nsw i32 %.val, -1
  store i32 %38, ptr %8, align 4, !tbaa !4
  br label %lean_dec.exit

39:                                               ; preds = %35
  %.not.i28 = icmp eq i32 %.val, 0
  br i1 %.not.i28, label %lean_dec.exit, label %40

40:                                               ; preds = %39
  tail call void @lean_dec_ref_cold(ptr noundef nonnull %8) #4
  br label %lean_dec.exit

lean_dec.exit:                                    ; preds = %40, %39, %37, %lean_inc.exit
  tail call void @lean_inc_heartbeat() #4
  %41 = tail call noalias ptr @mi_malloc_small(i64 noundef 24) #4
  %42 = icmp eq ptr %41, null
  br i1 %42, label %43, label %lean_alloc_ctor.exit

43:                                               ; preds = %lean_dec.exit
  tail call void @lean_internal_panic_out_of_memory() #5
  unreachable

lean_alloc_ctor.exit:                             ; preds = %lean_dec.exit
  %44 = getelementptr inbounds nuw i8, ptr %41, i64 4
  store i32 1, ptr %41, align 4, !tbaa !4
  store i32 131096, ptr %44, align 4
  %45 = getelementptr inbounds nuw i8, ptr %41, i64 8
  store ptr inttoptr (i64 1 to ptr), ptr %45, align 8, !tbaa !9
  %46 = getelementptr inbounds nuw i8, ptr %41, i64 16
  store ptr %24, ptr %46, align 8, !tbaa !9
  br label %47

47:                                               ; preds = %lean_alloc_ctor.exit, %lean_dec.exit27
  %.0 = phi ptr [ %8, %lean_dec.exit27 ], [ %41, %lean_alloc_ctor.exit ]
  ret ptr %.0
}